; Function Attrs: mustprogress nofree nounwind willreturn memory(argmem: write, inaccessiblemem: readwrite) uwtable
define void @nk_textedit_init_default(ptr noundef %0) local_unnamed_addr #40 {
  %.not = icmp eq ptr %0, null
  br i1 %.not, label %32, label %2

2:                                                ; preds = %1
  %3 = ptrtoint ptr %0 to i64
  %4 = and i64 %3, 3
  %.not.i = icmp eq i64 %4, 0
  br i1 %.not.i, label %.loopexit46.i.thread, label %.loopexit46.i

.loopexit46.i.thread:                             ; preds = %2
  tail call void @llvm.memset.p0.i64(ptr noundef nonnull align 4 dereferenceable(5384) %0, i8 0, i64 5376, i1 false), !tbaa !7
  br label %nk_memset.exit

.loopexit46.i:                                    ; preds = %2
  %5 = sub nuw nsw i64 4, %4
  tail call void @llvm.memset.p0.i64(ptr noundef nonnull align 1 dereferenceable(1) %0, i8 0, i64 %5, i1 false), !tbaa !9
  %scevgep.i = getelementptr i8, ptr %0, i64 %5
  tail call void @llvm.memset.p0.i64(ptr noundef nonnull align 4 dereferenceable(5380) %scevgep.i, i8 0, i64 5380, i1 false), !tbaa !7
  %scevgep53.i = getelementptr i8, ptr %scevgep.i, i64 5380
  tail call void @llvm.memset.p0.i64(ptr align 1 %scevgep53.i, i8 0, i64 %4, i1 false), !tbaa !9
  br label %nk_memset.exit

nk_memset.exit:                                   ; preds = %.loopexit46.i.thread, %.loopexit46.i
  %6 = getelementptr inbounds nuw i8, ptr %0, i64 5376
  store i16 0, ptr %6, align 8, !tbaa !1169
  %7 = getelementptr inbounds nuw i8, ptr %0, i64 5380
  store i16 0, ptr %7, align 4, !tbaa !1177
  %8 = getelementptr inbounds nuw i8, ptr %0, i64 5378
  store i16 99, ptr %8, align 2, !tbaa !1178
  %9 = getelementptr inbounds nuw i8, ptr %0, i64 5382
  store i16 999, ptr %9, align 2, !tbaa !1179
  %10 = getelementptr inbounds nuw i8, ptr %0, i64 172
  store i32 0, ptr %10, align 4, !tbaa !1165
  %11 = getelementptr inbounds nuw i8, ptr %0, i64 176
  store i32 0, ptr %11, align 8, !tbaa !1166
  %12 = getelementptr inbounds nuw i8, ptr %0, i64 168
  store i32 0, ptr %12, align 8, !tbaa !1167
  %13 = getelementptr inbounds nuw i8, ptr %0, i64 183
  store i8 0, ptr %13, align 1, !tbaa !1163
  %14 = getelementptr inbounds nuw i8, ptr %0, i64 188
  store float 0.000000e+00, ptr %14, align 4, !tbaa !1180
  %15 = getelementptr inbounds nuw i8, ptr %0, i64 181
  store i8 0, ptr %15, align 1, !tbaa !1181
  %16 = getelementptr inbounds nuw i8, ptr %0, i64 182
  store i8 1, ptr %16, align 2, !tbaa !1182
  %17 = getelementptr inbounds nuw i8, ptr %0, i64 184
  store i8 1, ptr %17, align 8, !tbaa !1170
  %18 = getelementptr inbounds nuw i8, ptr %0, i64 180
  store i8 0, ptr %18, align 4, !tbaa !1168
  %19 = getelementptr inbounds nuw i8, ptr %0, i64 152
  %20 = getelementptr inbounds nuw i8, ptr %0, i64 24
  %21 = ptrtoint ptr %20 to i64
  %22 = and i64 %21, 3
  %.not.i.i.i.i = icmp eq i64 %22, 0
  tail call void @llvm.memset.p0.i64(ptr noundef nonnull align 8 dereferenceable(16) %19, i8 0, i64 16, i1 false)
  br i1 %.not.i.i.i.i, label %.loopexit46.i.i.thread.i.i, label %.loopexit46.i.i.i.i

.loopexit46.i.i.thread.i.i:                       ; preds = %nk_memset.exit
  tail call void @llvm.memset.p0.i64(ptr noundef nonnull align 4 dereferenceable(120) %20, i8 0, i64 112, i1 false), !tbaa !7
  br label %nk_str_init_default.exit

.loopexit46.i.i.i.i:                              ; preds = %nk_memset.exit
  %23 = sub nuw nsw i64 4, %22
  tail call void @llvm.memset.p0.i64(ptr noundef nonnull align 1 dereferenceable(1) %20, i8 0, i64 %23, i1 false), !tbaa !9
  %scevgep.i.i.i.i = getelementptr i8, ptr %20, i64 %23
  tail call void @llvm.memset.p0.i64(ptr noundef nonnull align 4 dereferenceable(116) %scevgep.i.i.i.i, i8 0, i64 116, i1 false), !tbaa !7
  %scevgep53.i.i.i.i = getelementptr i8, ptr %scevgep.i.i.i.i, i64 116
  tail call void @llvm.memset.p0.i64(ptr align 1 %scevgep53.i.i.i.i, i8 0, i64 %22, i1 false), !tbaa !9
  br label %nk_str_init_default.exit

nk_str_init_default.exit:                         ; preds = %.loopexit46.i.i.thread.i.i, %.loopexit46.i.i.i.i
  %24 = getelementptr inbounds nuw i8, ptr %0, i64 80
  store i32 1, ptr %24, align 8, !tbaa !36
  %25 = tail call noalias noundef dereferenceable_or_null(32) ptr @malloc(i64 noundef 32) #50
  %26 = getelementptr inbounds nuw i8, ptr %0, i64 88
  store ptr %25, ptr %26, align 8, !tbaa !41
  %27 = getelementptr inbounds nuw i8, ptr %0, i64 96
  store i64 32, ptr %27, align 8, !tbaa !42
  %28 = getelementptr inbounds nuw i8, ptr %0, i64 136
  store i64 32, ptr %28, align 8, !tbaa !43
  %29 = getelementptr inbounds nuw i8, ptr %0, i64 104
  store float 2.000000e+00, ptr %29, align 8, !tbaa !44
  %30 = getelementptr inbounds nuw i8, ptr %0, i64 56
  store ptr null, ptr %30, align 8, !tbaa !9
  %.sroa.5.0..sroa_idx.i = getelementptr inbounds nuw i8, ptr %0, i64 64
  store ptr @nk_malloc, ptr %.sroa.5.0..sroa_idx.i, align 8, !tbaa !45
  %.sroa.7.0..sroa_idx.i = getelementptr inbounds nuw i8, ptr %0, i64 72
  store ptr @nk_mfree, ptr %.sroa.7.0..sroa_idx.i, align 8, !tbaa !45
  %31 = getelementptr inbounds nuw i8, ptr %0, i64 144
  store i32 0, ptr %31, align 8, !tbaa !69
  br label %32

32:                                               ; preds = %1, %nk_str_init_default.exit
  ret void
}